target datalayout = "e-m:e-p270:32:32-p271:32:32-p272:64:64-i64:64-i128:128-f80:128-n8:16:32:64-S128"
target triple = "x86_64-pc-linux-gnu"

; Function Attrs: mustprogress uwtable
define void @_ZN32pxrInternal_v0_24__pxrReserved__25UsdImagingDrawModeAdapter17ProcessPrimResyncERKNS_7SdfPathEPNS_20UsdImagingIndexProxyE(ptr noundef nonnull align 8 dereferenceable(156) %0, ptr noundef nonnull align 4 dereferenceable(8) %1, ptr noundef %2) unnamed_addr #0 align 2 {
  %4 = alloca ptr, align 8
  %5 = alloca ptr, align 8
  %6 = alloca ptr, align 8
  store ptr %0, ptr %4, align 8
  store ptr %1, ptr %5, align 8
  store ptr %2, ptr %6, align 8
  %7 = load ptr, ptr %4, align 8
  %8 = load ptr, ptr %5, align 8
  %9 = call noundef zeroext i1 @_ZNK32pxrInternal_v0_24__pxrReserved__25UsdImagingDrawModeAdapter15_IsMaterialPathERKNS_7SdfPathE(ptr noundef nonnull align 8 dereferenceable(156) %7, ptr noundef nonnull align 4 dereferenceable(8) %8)
  br i1 %9, label %10, label %11

10:                                               ; preds = %3
  br label %19

11:                                               ; preds = %3
  %12 = load ptr, ptr %5, align 8
  %13 = load ptr, ptr %6, align 8
  %14 = load ptr, ptr %7, align 8
  %15 = getelementptr inbounds ptr, ptr %14, i64 18
  %16 = load ptr, ptr %15, align 8
  call void %16(ptr noundef nonnull align 8 dereferenceable(156) %7, ptr noundef nonnull align 4 dereferenceable(8) %12, ptr noundef %13)
  %17 = load ptr, ptr %6, align 8
  %18 = load ptr, ptr %5, align 8
  call void @_ZN32pxrInternal_v0_24__pxrReserved__20UsdImagingIndexProxy10RepopulateERKNS_7SdfPathE(ptr noundef nonnull align 8 dereferenceable(184) %17, ptr noundef nonnull align 4 dereferenceable(8) %18)
  br label %19

19:                                               ; preds = %11, %10
  ret void
}