; Function Attrs: mustprogress uwtable
define void @_ZN32pxrInternal_v0_24__pxrReserved__25UsdImagingDrawModeAdapter17ProcessPrimResyncERKNS_7SdfPathEPNS_20UsdImagingIndexProxyE(ptr noundef nonnull align 8 dereferenceable(156) %0, ptr noundef nonnull align 4 dereferenceable(8) %1, ptr noundef %2) unnamed_addr #0 align 2 {
  %4 = tail call noundef zeroext i1 @_ZNK32pxrInternal_v0_24__pxrReserved__25UsdImagingDrawModeAdapter15_IsMaterialPathERKNS_7SdfPathE(ptr nonnull align 8 poison, ptr noundef nonnull align 4 dereferenceable(8) %1)
  br i1 %4, label %9, label %5

5:                                                ; preds = %3
  %6 = load ptr, ptr %0, align 8
  %7 = getelementptr inbounds nuw i8, ptr %6, i64 144
  %8 = load ptr, ptr %7, align 8
  tail call void %8(ptr noundef nonnull align 8 dereferenceable(156) %0, ptr noundef nonnull align 4 dereferenceable(8) %1, ptr noundef %2)
  tail call void @_ZN32pxrInternal_v0_24__pxrReserved__20UsdImagingIndexProxy10RepopulateERKNS_7SdfPathE(ptr noundef nonnull align 8 dereferenceable(184) %2, ptr noundef nonnull align 4 dereferenceable(8) %1)
  br label %9

9:                                                ; preds = %3, %5
  ret void
}